target datalayout = "e-m:e-p270:32:32-p271:32:32-p272:64:64-i64:64-i128:128-f80:128-n8:16:32:64-S128"
target triple = "x86_64-pc-linux-gnu"

%"class.(anonymous namespace)::itanium_demangle::Node" = type <{ ptr, i8, i16, [5 x i8] }>
%"class.(anonymous namespace)::itanium_demangle::OutputBuffer" = type <{ ptr, ptr, i64, i64, i32, i32, i32, [4 x i8] }>
%"class.(anonymous namespace)::itanium_demangle::NodeArray" = type { ptr, i64 }
%"class.(anonymous namespace)::itanium_demangle::Node.base" = type <{ ptr, i8, i16 }>
%"class.(anonymous namespace)::itanium_demangle::ParameterPack" = type { %"class.(anonymous namespace)::itanium_demangle::Node.base", %"class.(anonymous namespace)::itanium_demangle::NodeArray" }

; Function Attrs: mustprogress nounwind uwtable
define linkonce_odr hidden noundef i32 @_ZNSt3__123__libcpp_numeric_limitsIjLb1EE3maxB8ne210000Ev() #6 comdat align 2 {
  ret i32 -1
}

; Function Attrs: mustprogress nounwind uwtable
define linkonce_odr hidden noundef i32 @_ZNSt3__114numeric_limitsIjE3maxB8ne210000Ev() #6 comdat align 2 {
  %1 = call noundef i32 @_ZNSt3__123__libcpp_numeric_limitsIjLb1EE3maxB8ne210000Ev() #19
  ret i32 %1
}

; Function Attrs: mustprogress uwtable
define internal noundef zeroext i1 @_ZNK12_GLOBAL__N_116itanium_demangle4Node15hasRHSComponentERNS0_12OutputBufferE(ptr noundef nonnull align 8 dereferenceable(11) %0, ptr noundef nonnull align 8 dereferenceable(44) %1) #3 align 2 {
  %3 = alloca i1, align 1
  %4 = alloca ptr, align 8
  %5 = alloca ptr, align 8
  store ptr %0, ptr %4, align 8, !tbaa !4
  store ptr %1, ptr %5, align 8, !tbaa !226
  %6 = load ptr, ptr %4, align 8
  %7 = getelementptr inbounds nuw %"class.(anonymous namespace)::itanium_demangle::Node", ptr %6, i32 0, i32 2
  %8 = load i16, ptr %7, align 1
  %9 = lshr i16 %8, 6
  %10 = and i16 %9, 3
  %11 = trunc i16 %10 to i8
  %12 = icmp ne i8 %11, 2
  br i1 %12, label %13, label %20

13:                                               ; preds = %2
  %14 = getelementptr inbounds nuw %"class.(anonymous namespace)::itanium_demangle::Node", ptr %6, i32 0, i32 2
  %15 = load i16, ptr %14, align 1
  %16 = lshr i16 %15, 6
  %17 = and i16 %16, 3
  %18 = trunc i16 %17 to i8
  %19 = icmp eq i8 %18, 0
  store i1 %19, ptr %3, align 1
  br label %26

20:                                               ; preds = %2
  %21 = load ptr, ptr %5, align 8, !tbaa !226
  %22 = load ptr, ptr %6, align 8, !tbaa !232
  %23 = getelementptr inbounds ptr, ptr %22, i64 0
  %24 = load ptr, ptr %23, align 8
  %25 = call noundef zeroext i1 %24(ptr noundef nonnull align 8 dereferenceable(11) %6, ptr noundef nonnull align 8 dereferenceable(44) %21)
  store i1 %25, ptr %3, align 1
  br label %26

26:                                               ; preds = %20, %13
  %27 = load i1, ptr %3, align 1
  ret i1 %27
}

; Function Attrs: mustprogress nounwind uwtable
define internal noundef ptr @_ZNK12_GLOBAL__N_116itanium_demangle9NodeArrayixEm(ptr noundef nonnull align 8 dereferenceable(16) %0, i64 noundef %1) #6 align 2 {
  %3 = alloca ptr, align 8
  %4 = alloca i64, align 8
  store ptr %0, ptr %3, align 8, !tbaa !466
  store i64 %1, ptr %4, align 8, !tbaa !203
  %5 = load ptr, ptr %3, align 8
  %6 = getelementptr inbounds nuw %"class.(anonymous namespace)::itanium_demangle::NodeArray", ptr %5, i32 0, i32 0
  %7 = load ptr, ptr %6, align 8, !tbaa !470
  %8 = load i64, ptr %4, align 8, !tbaa !203
  %9 = getelementptr inbounds nuw ptr, ptr %7, i64 %8
  %10 = load ptr, ptr %9, align 8, !tbaa !4
  ret ptr %10
}

; Function Attrs: mustprogress nounwind uwtable
define internal noundef i64 @_ZNK12_GLOBAL__N_116itanium_demangle9NodeArray4sizeEv(ptr noundef nonnull align 8 dereferenceable(16) %0) #6 align 2 {
  %2 = alloca ptr, align 8
  store ptr %0, ptr %2, align 8, !tbaa !466
  %3 = load ptr, ptr %2, align 8
  %4 = getelementptr inbounds nuw %"class.(anonymous namespace)::itanium_demangle::NodeArray", ptr %3, i32 0, i32 1
  %5 = load i64, ptr %4, align 8, !tbaa !468
  ret i64 %5
}

; Function Attrs: mustprogress nounwind uwtable
define internal void @_ZNK12_GLOBAL__N_116itanium_demangle13ParameterPack23initializePackExpansionERNS0_12OutputBufferE(ptr noundef nonnull align 8 dereferenceable(32) %0, ptr noundef nonnull align 8 dereferenceable(44) %1) #6 align 2 {
  %3 = alloca ptr, align 8
  %4 = alloca ptr, align 8
  store ptr %0, ptr %3, align 8, !tbaa !98
  store ptr %1, ptr %4, align 8, !tbaa !226
  %5 = load ptr, ptr %3, align 8
  %6 = load ptr, ptr %4, align 8, !tbaa !226
  %7 = getelementptr inbounds nuw %"class.(anonymous namespace)::itanium_demangle::OutputBuffer", ptr %6, i32 0, i32 5
  %8 = load i32, ptr %7, align 4, !tbaa !274
  %9 = call noundef i32 @_ZNSt3__114numeric_limitsIjE3maxB8ne210000Ev() #19
  %10 = icmp eq i32 %8, %9
  br i1 %10, label %11, label %19

11:                                               ; preds = %2
  %12 = getelementptr inbounds nuw %"class.(anonymous namespace)::itanium_demangle::ParameterPack", ptr %5, i32 0, i32 1
  %13 = call noundef i64 @_ZNK12_GLOBAL__N_116itanium_demangle9NodeArray4sizeEv(ptr noundef nonnull align 8 dereferenceable(16) %12)
  %14 = trunc i64 %13 to i32
  %15 = load ptr, ptr %4, align 8, !tbaa !226
  %16 = getelementptr inbounds nuw %"class.(anonymous namespace)::itanium_demangle::OutputBuffer", ptr %15, i32 0, i32 5
  store i32 %14, ptr %16, align 4, !tbaa !274
  %17 = load ptr, ptr %4, align 8, !tbaa !226
  %18 = getelementptr inbounds nuw %"class.(anonymous namespace)::itanium_demangle::OutputBuffer", ptr %17, i32 0, i32 4
  store i32 0, ptr %18, align 8, !tbaa !273
  br label %19

19:                                               ; preds = %11, %2
  ret void
}

; Function Attrs: mustprogress uwtable
define internal noundef zeroext i1 @_ZNK12_GLOBAL__N_116itanium_demangle13ParameterPack19hasRHSComponentSlowERNS0_12OutputBufferE(ptr noundef nonnull align 8 dereferenceable(32) %0, ptr noundef nonnull align 8 dereferenceable(44) %1) unnamed_addr #3 align 2 {
  %3 = alloca ptr, align 8
  %4 = alloca ptr, align 8
  %5 = alloca i64, align 8
  store ptr %0, ptr %3, align 8, !tbaa !98
  store ptr %1, ptr %4, align 8, !tbaa !226
  %6 = load ptr, ptr %3, align 8
  %7 = load ptr, ptr %4, align 8, !tbaa !226
  call void @_ZNK12_GLOBAL__N_116itanium_demangle13ParameterPack23initializePackExpansionERNS0_12OutputBufferE(ptr noundef nonnull align 8 dereferenceable(32) %6, ptr noundef nonnull align 8 dereferenceable(44) %7)
  call void @llvm.lifetime.start.p0(i64 8, ptr %5) #19
  %8 = load ptr, ptr %4, align 8, !tbaa !226
  %9 = getelementptr inbounds nuw %"class.(anonymous namespace)::itanium_demangle::OutputBuffer", ptr %8, i32 0, i32 4
  %10 = load i32, ptr %9, align 8, !tbaa !273
  %11 = zext i32 %10 to i64
  store i64 %11, ptr %5, align 8, !tbaa !203
  %12 = load i64, ptr %5, align 8, !tbaa !203
  %13 = getelementptr inbounds nuw %"class.(anonymous namespace)::itanium_demangle::ParameterPack", ptr %6, i32 0, i32 1
  %14 = call noundef i64 @_ZNK12_GLOBAL__N_116itanium_demangle9NodeArray4sizeEv(ptr noundef nonnull align 8 dereferenceable(16) %13)
  %15 = icmp ult i64 %12, %14
  br i1 %15, label %16, label %22

16:                                               ; preds = %2
  %17 = getelementptr inbounds nuw %"class.(anonymous namespace)::itanium_demangle::ParameterPack", ptr %6, i32 0, i32 1
  %18 = load i64, ptr %5, align 8, !tbaa !203
  %19 = call noundef ptr @_ZNK12_GLOBAL__N_116itanium_demangle9NodeArrayixEm(ptr noundef nonnull align 8 dereferenceable(16) %17, i64 noundef %18)
  %20 = load ptr, ptr %4, align 8, !tbaa !226
  %21 = call noundef zeroext i1 @_ZNK12_GLOBAL__N_116itanium_demangle4Node15hasRHSComponentERNS0_12OutputBufferE(ptr noundef nonnull align 8 dereferenceable(11) %19, ptr noundef nonnull align 8 dereferenceable(44) %20)
  br label %22

22:                                               ; preds = %16, %2
  %23 = phi i1 [ false, %2 ], [ %21, %16 ]
  call void @llvm.lifetime.end.p0(i64 8, ptr %5) #19
  ret i1 %23
}