; Function Attrs: mustprogress uwtable
define internal noundef zeroext i1 @_ZNK12_GLOBAL__N_116itanium_demangle13ParameterPack19hasRHSComponentSlowERNS0_12OutputBufferE(ptr noundef nonnull readonly align 8 captures(none) dereferenceable(32) %0, ptr noundef nonnull align 8 dereferenceable(44) %1) unnamed_addr #2 align 2 {
  %3 = getelementptr inbounds nuw i8, ptr %1, i64 36
  %4 = load i32, ptr %3, align 4, !tbaa !227
  %5 = icmp eq i32 %4, -1
  br i1 %5, label %7, label %._ZNK12_GLOBAL__N_116itanium_demangle13ParameterPack23initializePackExpansionERNS0_12OutputBufferE.exit_crit_edge

._ZNK12_GLOBAL__N_116itanium_demangle13ParameterPack23initializePackExpansionERNS0_12OutputBufferE.exit_crit_edge: ; preds = %2
  %.phi.trans.insert = getelementptr inbounds nuw i8, ptr %1, i64 32
  %.pre = load i32, ptr %.phi.trans.insert, align 8, !tbaa !226
  %.phi.trans.insert7 = getelementptr inbounds nuw i8, ptr %0, i64 24
  %.val.pre = load i64, ptr %.phi.trans.insert7, align 8, !tbaa !475
  %6 = zext i32 %.pre to i64
  br label %_ZNK12_GLOBAL__N_116itanium_demangle13ParameterPack23initializePackExpansionERNS0_12OutputBufferE.exit

7:                                                ; preds = %2
  %8 = getelementptr inbounds nuw i8, ptr %0, i64 24
  %.val5 = load i64, ptr %8, align 8
  %9 = trunc i64 %.val5 to i32
  store i32 %9, ptr %3, align 4, !tbaa !227
  %10 = getelementptr inbounds nuw i8, ptr %1, i64 32
  store i32 0, ptr %10, align 8, !tbaa !226
  br label %_ZNK12_GLOBAL__N_116itanium_demangle13ParameterPack23initializePackExpansionERNS0_12OutputBufferE.exit

_ZNK12_GLOBAL__N_116itanium_demangle13ParameterPack23initializePackExpansionERNS0_12OutputBufferE.exit: ; preds = %._ZNK12_GLOBAL__N_116itanium_demangle13ParameterPack23initializePackExpansionERNS0_12OutputBufferE.exit_crit_edge, %7
  %.val = phi i64 [ %.val.pre, %._ZNK12_GLOBAL__N_116itanium_demangle13ParameterPack23initializePackExpansionERNS0_12OutputBufferE.exit_crit_edge ], [ %.val5, %7 ]
  %11 = phi i64 [ %6, %._ZNK12_GLOBAL__N_116itanium_demangle13ParameterPack23initializePackExpansionERNS0_12OutputBufferE.exit_crit_edge ], [ 0, %7 ]
  %12 = icmp ugt i64 %.val, %11
  br i1 %12, label %13, label %_ZNK12_GLOBAL__N_116itanium_demangle4Node15hasRHSComponentERNS0_12OutputBufferE.exit

13:                                               ; preds = %_ZNK12_GLOBAL__N_116itanium_demangle13ParameterPack23initializePackExpansionERNS0_12OutputBufferE.exit
  %14 = getelementptr inbounds nuw i8, ptr %0, i64 16
  %.val6 = load ptr, ptr %14, align 8, !tbaa !476
  %15 = getelementptr inbounds nuw ptr, ptr %.val6, i64 %11
  %16 = load ptr, ptr %15, align 8, !tbaa !192
  %17 = getelementptr inbounds nuw i8, ptr %16, i64 9
  %18 = load i16, ptr %17, align 1
  %19 = trunc i16 %18 to i8
  %.not.i = icmp slt i8 %19, -64
  br i1 %.not.i, label %22, label %20

20:                                               ; preds = %13
  %21 = icmp ult i8 %19, 64
  br label %_ZNK12_GLOBAL__N_116itanium_demangle4Node15hasRHSComponentERNS0_12OutputBufferE.exit

22:                                               ; preds = %13
  %23 = load ptr, ptr %16, align 8, !tbaa !214
  %24 = load ptr, ptr %23, align 8
  %25 = tail call noundef zeroext i1 %24(ptr noundef nonnull align 8 dereferenceable(11) %16, ptr noundef nonnull align 8 dereferenceable(44) %1)
  br label %_ZNK12_GLOBAL__N_116itanium_demangle4Node15hasRHSComponentERNS0_12OutputBufferE.exit

_ZNK12_GLOBAL__N_116itanium_demangle4Node15hasRHSComponentERNS0_12OutputBufferE.exit: ; preds = %22, %20, %_ZNK12_GLOBAL__N_116itanium_demangle13ParameterPack23initializePackExpansionERNS0_12OutputBufferE.exit
  %26 = phi i1 [ false, %_ZNK12_GLOBAL__N_116itanium_demangle13ParameterPack23initializePackExpansionERNS0_12OutputBufferE.exit ], [ %21, %20 ], [ %25, %22 ]
  ret i1 %26
}